; Function Attrs: mustprogress nounwind memory(read, inaccessiblemem: write) uwtable
define { i64, i64 } @_ZNK8facebook5velox16ByteOutputStream5tellpEv(ptr nocapture noundef nonnull readonly align 8 dereferenceable(60) %this) local_unnamed_addr #3 align 2 {
entry:
  %ranges_ = getelementptr inbounds i8, ptr %this, i64 16
  %0 = load ptr, ptr %ranges_, align 8
  %_M_finish.i.i = getelementptr inbounds i8, ptr %this, i64 24
  %1 = load ptr, ptr %_M_finish.i.i, align 8
  %cmp.i.i = icmp eq ptr %0, %1
  br i1 %cmp.i.i, label %return, label %for.cond.preheader

for.cond.preheader:                               ; preds = %entry
  %current_ = getelementptr inbounds i8, ptr %this, i64 48
  %2 = load ptr, ptr %current_, align 8
  br label %for.body

for.body:                                         ; preds = %for.cond.preheader, %if.end10
  %size.09 = phi i64 [ 0, %for.cond.preheader ], [ %add13, %if.end10 ]
  %__begin2.sroa.0.08 = phi ptr [ %0, %for.cond.preheader ], [ %incdec.ptr.i, %if.end10 ]
  %cmp = icmp eq ptr %__begin2.sroa.0.08, %2
  br i1 %cmp, label %if.then8, label %if.end10

if.then8:                                         ; preds = %for.body
  %position = getelementptr inbounds i8, ptr %2, i64 12
  %3 = load i32, ptr %position, align 4
  %conv = sext i32 %3 to i64
  %add = add nsw i64 %size.09, %conv
  br label %return

if.end10:                                         ; preds = %for.body
  %size11 = getelementptr inbounds i8, ptr %__begin2.sroa.0.08, i64 8
  %4 = load i32, ptr %size11, align 8
  %conv12 = sext i32 %4 to i64
  %add13 = add nsw i64 %size.09, %conv12
  %incdec.ptr.i = getelementptr inbounds i8, ptr %__begin2.sroa.0.08, i64 16
  %cmp.i.not = icmp eq ptr %incdec.ptr.i, %1
  br i1 %cmp.i.not, label %for.end, label %for.body

for.end:                                          ; preds = %if.end10
  tail call void @llvm.trap()
  unreachable

return:                                           ; preds = %entry, %if.then8
  %retval.sroa.0.0 = phi i64 [ %add, %if.then8 ], [ 0, %entry ]
  %.fca.0.insert = insertvalue { i64, i64 } poison, i64 %retval.sroa.0.0, 0
  %.fca.1.insert = insertvalue { i64, i64 } %.fca.0.insert, i64 0, 1
  ret { i64, i64 } %.fca.1.insert
}